target datalayout = "e-m:e-p270:32:32-p271:32:32-p272:64:64-i64:64-i128:128-f80:128-n8:16:32:64-S128"
target triple = "x86_64-pc-linux-gnu"

%struct.PS_Builder_FuncsRec_ = type { ptr, ptr }
%struct.CF2_StackNumber_ = type { %union.anon.0, i32 }
%union.anon.0 = type { i32 }
%struct.FT_BBox_ = type { i64, i64, i64, i64 }
%struct.FT_Vector_ = type { i64, i64 }
%struct.PS_Builder_ = type { ptr, ptr, ptr, ptr, ptr, ptr, ptr, ptr, ptr, ptr, ptr, i8, i8, i8, i8, i8, %struct.PS_Builder_FuncsRec_ }
%struct.FT_Matrix_ = type { i64, i64, i64, i64 }
%struct.CF2_Matrix_ = type { i32, i32, i32, i32, i32, i32 }
%struct.PS_Decoder_ = type { %struct.PS_Builder_, [49 x i64], ptr, [17 x %struct.PS_Decoder_Zone_], ptr, i32, i32, [7 x %struct.FT_Vector_], ptr, ptr, ptr, ptr, i8, i32, i32, i32, i32, i32, ptr, ptr, ptr, i32, i32, i8, ptr, ptr, ptr, i32, ptr, ptr, %struct.FT_Matrix_, %struct.FT_Vector_, ptr, ptr, i32 }
%struct.PS_Decoder_Zone_ = type { ptr, ptr, ptr }
%struct.CF2_FontRec_ = type { ptr, i32, i8, i8, i32, %struct.CF2_Matrix_, %struct.CF2_Matrix_, %struct.CF2_Matrix_, i32, %struct.CFF_BlendRec_, i32, i32, ptr, i32, i32, i32, %struct.CF2_OutlineRec_, ptr, ptr, i8, i8, i8, [8 x i32], i32, i32, i32, i32, i8, %struct.CF2_BluesRec_, ptr }
%struct.CFF_BlendRec_ = type { i8, i8, ptr, i32, i32, ptr, i32, ptr }
%struct.CF2_OutlineRec_ = type { %struct.CF2_OutlineCallbacksRec_, ptr }
%struct.CF2_OutlineCallbacksRec_ = type { ptr, ptr, ptr, ptr, i32, ptr, ptr }
%struct.CF2_BluesRec_ = type { i32, i32, i8, i8, i32, i32, i32, i32, %struct.CF2_HintRec_, %struct.CF2_HintRec_, [12 x %struct.CF2_BlueRec_] }
%struct.CF2_HintRec_ = type { i32, i64, i32, i32, i32 }
%struct.CF2_BlueRec_ = type { i32, i32, i32, i32, i8 }
%struct.CFF_IndexRec_ = type { ptr, i64, i32, i32, i8, i64, i64, ptr, ptr }
%struct.CFF_SubFontRec_ = type { %struct.CFF_FontRecDictRec_, %struct.CFF_PrivateRec_, %struct.CFF_BlendRec_, i32, ptr, ptr, ptr, i32, i32, %struct.CFF_IndexRec_, ptr, i32 }
%struct.CFF_FontRecDictRec_ = type { i32, i32, i32, i32, i32, i32, i8, i64, i64, i64, i32, i32, %struct.FT_Matrix_, i8, i64, %struct.FT_Vector_, i64, %struct.FT_BBox_, i64, i64, i64, i64, i64, i64, i64, i32, i32, i32, i64, i64, i64, i64, i64, i64, i64, i64, i32, i16, i16, i64, i32 }
%struct.CFF_PrivateRec_ = type { i8, i8, i8, i8, [14 x i64], [10 x i64], [14 x i64], [10 x i64], i64, i64, i64, i64, i64, i8, i8, [13 x i64], [13 x i64], i8, i64, i32, i32, i64, i64, i64, i64, i64, i32, ptr }
%struct.CF2_StackRec_ = type { ptr, ptr, ptr, ptr, i32 }
%struct.CF2_StemHintRec_ = type { i8, i32, i32, i32, i32 }

; Function Attrs: nounwind uwtable
define internal void @cf2_setError(ptr noundef %0, i32 noundef %1) #0 {
  %3 = alloca ptr, align 8
  %4 = alloca i32, align 4
  store ptr %0, ptr %3, align 8
  store i32 %1, ptr %4, align 4
  %5 = load ptr, ptr %3, align 8
  %6 = icmp ne ptr %5, null
  br i1 %6, label %7, label %14

7:                                                ; preds = %2
  %8 = load ptr, ptr %3, align 8
  %9 = load i32, ptr %8, align 4
  %10 = icmp ne i32 %9, 0
  br i1 %10, label %14, label %11

11:                                               ; preds = %7
  %12 = load i32, ptr %4, align 4
  %13 = load ptr, ptr %3, align 8
  store i32 %12, ptr %13, align 4
  br label %14

14:                                               ; preds = %11, %7, %2
  ret void
}

; Function Attrs: nounwind uwtable
define internal void @cf2_stack_clear(ptr noundef %0) #0 {
  %2 = alloca ptr, align 8
  store ptr %0, ptr %2, align 8
  %3 = load ptr, ptr %2, align 8
  %4 = getelementptr inbounds %struct.CF2_StackRec_, ptr %3, i32 0, i32 2
  %5 = load ptr, ptr %4, align 8
  %6 = load ptr, ptr %2, align 8
  %7 = getelementptr inbounds %struct.CF2_StackRec_, ptr %6, i32 0, i32 3
  store ptr %5, ptr %7, align 8
  ret void
}

; Function Attrs: nounwind uwtable
define internal i32 @cf2_getNominalWidthX(ptr noundef %0) #0 {
  %2 = alloca ptr, align 8
  store ptr %0, ptr %2, align 8
  br label %3

3:                                                ; preds = %1
  br label %4

4:                                                ; preds = %3
  %5 = load ptr, ptr %2, align 8
  %6 = getelementptr inbounds %struct.PS_Decoder_, ptr %5, i32 0, i32 9
  %7 = load ptr, ptr %6, align 8
  %8 = getelementptr inbounds %struct.CFF_SubFontRec_, ptr %7, i32 0, i32 1
  %9 = getelementptr inbounds %struct.CFF_PrivateRec_, ptr %8, i32 0, i32 25
  %10 = load i64, ptr %9, align 8
  %11 = trunc i64 %10 to i32
  %12 = shl i32 %11, 16
  ret i32 %12
}

; Function Attrs: nounwind uwtable
define internal i32 @cf2_stack_getReal(ptr noundef %0, i32 noundef %1) #0 {
  %3 = alloca i32, align 4
  %4 = alloca ptr, align 8
  %5 = alloca i32, align 4
  store ptr %0, ptr %4, align 8
  store i32 %1, ptr %5, align 4
  br label %6

6:                                                ; preds = %2
  br label %7

7:                                                ; preds = %6
  %8 = load i32, ptr %5, align 4
  %9 = load ptr, ptr %4, align 8
  %10 = call i32 @cf2_stack_count(ptr noundef %9)
  %11 = icmp uge i32 %8, %10
  br i1 %11, label %12, label %16

12:                                               ; preds = %7
  %13 = load ptr, ptr %4, align 8
  %14 = getelementptr inbounds %struct.CF2_StackRec_, ptr %13, i32 0, i32 1
  %15 = load ptr, ptr %14, align 8
  call void @cf2_setError(ptr noundef %15, i32 noundef 130)
  store i32 0, ptr %3, align 4
  br label %66

16:                                               ; preds = %7
  %17 = load ptr, ptr %4, align 8
  %18 = getelementptr inbounds %struct.CF2_StackRec_, ptr %17, i32 0, i32 2
  %19 = load ptr, ptr %18, align 8
  %20 = load i32, ptr %5, align 4
  %21 = zext i32 %20 to i64
  %22 = getelementptr inbounds %struct.CF2_StackNumber_, ptr %19, i64 %21
  %23 = getelementptr inbounds %struct.CF2_StackNumber_, ptr %22, i32 0, i32 1
  %24 = load i32, ptr %23, align 4
  switch i32 %24, label %57 [
    i32 2, label %25
    i32 1, label %35
  ]

25:                                               ; preds = %16
  %26 = load ptr, ptr %4, align 8
  %27 = getelementptr inbounds %struct.CF2_StackRec_, ptr %26, i32 0, i32 2
  %28 = load ptr, ptr %27, align 8
  %29 = load i32, ptr %5, align 4
  %30 = zext i32 %29 to i64
  %31 = getelementptr inbounds %struct.CF2_StackNumber_, ptr %28, i64 %30
  %32 = getelementptr inbounds %struct.CF2_StackNumber_, ptr %31, i32 0, i32 0
  %33 = load i32, ptr %32, align 4
  %34 = shl i32 %33, 16
  store i32 %34, ptr %3, align 4
  br label %66

35:                                               ; preds = %16
  %36 = load ptr, ptr %4, align 8
  %37 = getelementptr inbounds %struct.CF2_StackRec_, ptr %36, i32 0, i32 2
  %38 = load ptr, ptr %37, align 8
  %39 = load i32, ptr %5, align 4
  %40 = zext i32 %39 to i64
  %41 = getelementptr inbounds %struct.CF2_StackNumber_, ptr %38, i64 %40
  %42 = getelementptr inbounds %struct.CF2_StackNumber_, ptr %41, i32 0, i32 0
  %43 = load i32, ptr %42, align 4
  %44 = add nsw i32 %43, 8192
  %45 = load ptr, ptr %4, align 8
  %46 = getelementptr inbounds %struct.CF2_StackRec_, ptr %45, i32 0, i32 2
  %47 = load ptr, ptr %46, align 8
  %48 = load i32, ptr %5, align 4
  %49 = zext i32 %48 to i64
  %50 = getelementptr inbounds %struct.CF2_StackNumber_, ptr %47, i64 %49
  %51 = getelementptr inbounds %struct.CF2_StackNumber_, ptr %50, i32 0, i32 0
  %52 = load i32, ptr %51, align 4
  %53 = icmp slt i32 %52, 0
  %54 = zext i1 %53 to i32
  %55 = sub nsw i32 %44, %54
  %56 = ashr i32 %55, 14
  store i32 %56, ptr %3, align 4
  br label %66

57:                                               ; preds = %16
  %58 = load ptr, ptr %4, align 8
  %59 = getelementptr inbounds %struct.CF2_StackRec_, ptr %58, i32 0, i32 2
  %60 = load ptr, ptr %59, align 8
  %61 = load i32, ptr %5, align 4
  %62 = zext i32 %61 to i64
  %63 = getelementptr inbounds %struct.CF2_StackNumber_, ptr %60, i64 %62
  %64 = getelementptr inbounds %struct.CF2_StackNumber_, ptr %63, i32 0, i32 0
  %65 = load i32, ptr %64, align 4
  store i32 %65, ptr %3, align 4
  br label %66

66:                                               ; preds = %57, %35, %25, %12
  %67 = load i32, ptr %3, align 4
  ret i32 %67
}

; Function Attrs: nounwind uwtable
define internal i32 @cf2_stack_count(ptr noundef %0) #0 {
  %2 = alloca ptr, align 8
  store ptr %0, ptr %2, align 8
  %3 = load ptr, ptr %2, align 8
  %4 = getelementptr inbounds %struct.CF2_StackRec_, ptr %3, i32 0, i32 3
  %5 = load ptr, ptr %4, align 8
  %6 = load ptr, ptr %2, align 8
  %7 = getelementptr inbounds %struct.CF2_StackRec_, ptr %6, i32 0, i32 2
  %8 = load ptr, ptr %7, align 8
  %9 = ptrtoint ptr %5 to i64
  %10 = ptrtoint ptr %8 to i64
  %11 = sub i64 %9, %10
  %12 = sdiv exact i64 %11, 8
  %13 = trunc i64 %12 to i32
  ret i32 %13
}

; Function Attrs: nounwind uwtable
define internal void @cf2_doStems(ptr noundef %0, ptr noundef %1, ptr noundef %2, ptr noundef %3, ptr noundef %4, i32 noundef %5) #0 {
  %7 = alloca ptr, align 8
  %8 = alloca ptr, align 8
  %9 = alloca ptr, align 8
  %10 = alloca ptr, align 8
  %11 = alloca ptr, align 8
  %12 = alloca i32, align 4
  %13 = alloca i32, align 4
  %14 = alloca i32, align 4
  %15 = alloca i8, align 1
  %16 = alloca i32, align 4
  %17 = alloca %struct.CF2_StemHintRec_, align 4
  store ptr %0, ptr %7, align 8
  store ptr %1, ptr %8, align 8
  store ptr %2, ptr %9, align 8
  store ptr %3, ptr %10, align 8
  store ptr %4, ptr %11, align 8
  store i32 %5, ptr %12, align 4
  %18 = load ptr, ptr %8, align 8
  %19 = call i32 @cf2_stack_count(ptr noundef %18)
  store i32 %19, ptr %14, align 4
  %20 = load i32, ptr %14, align 4
  %21 = and i32 %20, 1
  %22 = icmp ne i32 %21, 0
  %23 = zext i1 %22 to i32
  %24 = trunc i32 %23 to i8
  store i8 %24, ptr %15, align 1
  %25 = load i32, ptr %12, align 4
  store i32 %25, ptr %16, align 4
  %26 = load ptr, ptr %7, align 8
  %27 = getelementptr inbounds %struct.CF2_FontRec_, ptr %26, i32 0, i32 2
  %28 = load i8, ptr %27, align 4
  %29 = zext i8 %28 to i32
  %30 = icmp ne i32 %29, 0
  br i1 %30, label %31, label %45

31:                                               ; preds = %6
  %32 = load ptr, ptr %7, align 8
  %33 = getelementptr inbounds %struct.CF2_FontRec_, ptr %32, i32 0, i32 17
  %34 = load ptr, ptr %33, align 8
  %35 = getelementptr inbounds %struct.PS_Decoder_, ptr %34, i32 0, i32 5
  %36 = load i32, ptr %35, align 8
  %37 = icmp ne i32 %36, 0
  br i1 %37, label %45, label %38

38:                                               ; preds = %31
  %39 = load ptr, ptr %11, align 8
  %40 = load i8, ptr %39, align 1
  %41 = icmp ne i8 %40, 0
  br i1 %41, label %45, label %42

42:                                               ; preds = %38
  br label %43

43:                                               ; preds = %42
  br label %44

44:                                               ; preds = %43
  br label %45

45:                                               ; preds = %44, %38, %31, %6
  %46 = load ptr, ptr %7, align 8
  %47 = getelementptr inbounds %struct.CF2_FontRec_, ptr %46, i32 0, i32 2
  %48 = load i8, ptr %47, align 4
  %49 = icmp ne i8 %48, 0
  br i1 %49, label %67, label %50

50:                                               ; preds = %45
  %51 = load i8, ptr %15, align 1
  %52 = zext i8 %51 to i32
  %53 = icmp ne i32 %52, 0
  br i1 %53, label %54, label %67

54:                                               ; preds = %50
  %55 = load ptr, ptr %11, align 8
  %56 = load i8, ptr %55, align 1
  %57 = icmp ne i8 %56, 0
  br i1 %57, label %67, label %58

58:                                               ; preds = %54
  %59 = load ptr, ptr %8, align 8
  %60 = call i32 @cf2_stack_getReal(ptr noundef %59, i32 noundef 0)
  %61 = load ptr, ptr %7, align 8
  %62 = getelementptr inbounds %struct.CF2_FontRec_, ptr %61, i32 0, i32 17
  %63 = load ptr, ptr %62, align 8
  %64 = call i32 @cf2_getNominalWidthX(ptr noundef %63)
  %65 = add i32 %60, %64
  %66 = load ptr, ptr %10, align 8
  store i32 %65, ptr %66, align 4
  br label %67

67:                                               ; preds = %58, %54, %50, %45
  %68 = load ptr, ptr %7, align 8
  %69 = getelementptr inbounds %struct.CF2_FontRec_, ptr %68, i32 0, i32 17
  %70 = load ptr, ptr %69, align 8
  %71 = getelementptr inbounds %struct.PS_Decoder_, ptr %70, i32 0, i32 12
  %72 = load i8, ptr %71, align 8
  %73 = icmp ne i8 %72, 0
  br i1 %73, label %74, label %75

74:                                               ; preds = %67
  br label %107

75:                                               ; preds = %67
  %76 = load i8, ptr %15, align 1
  %77 = zext i8 %76 to i32
  %78 = icmp ne i32 %77, 0
  %79 = select i1 %78, i32 1, i32 0
  store i32 %79, ptr %13, align 4
  br label %80

80:                                               ; preds = %102, %75
  %81 = load i32, ptr %13, align 4
  %82 = load i32, ptr %14, align 4
  %83 = icmp ult i32 %81, %82
  br i1 %83, label %84, label %105

84:                                               ; preds = %80
  %85 = load i32, ptr %16, align 4
  %86 = load ptr, ptr %8, align 8
  %87 = load i32, ptr %13, align 4
  %88 = call i32 @cf2_stack_getReal(ptr noundef %86, i32 noundef %87)
  %89 = add i32 %85, %88
  store i32 %89, ptr %16, align 4
  %90 = getelementptr inbounds %struct.CF2_StemHintRec_, ptr %17, i32 0, i32 1
  store i32 %89, ptr %90, align 4
  %91 = load i32, ptr %16, align 4
  %92 = load ptr, ptr %8, align 8
  %93 = load i32, ptr %13, align 4
  %94 = add i32 %93, 1
  %95 = call i32 @cf2_stack_getReal(ptr noundef %92, i32 noundef %94)
  %96 = add i32 %91, %95
  store i32 %96, ptr %16, align 4
  %97 = getelementptr inbounds %struct.CF2_StemHintRec_, ptr %17, i32 0, i32 2
  store i32 %96, ptr %97, align 4
  %98 = getelementptr inbounds %struct.CF2_StemHintRec_, ptr %17, i32 0, i32 0
  store i8 0, ptr %98, align 4
  %99 = getelementptr inbounds %struct.CF2_StemHintRec_, ptr %17, i32 0, i32 3
  store i32 0, ptr %99, align 4
  %100 = getelementptr inbounds %struct.CF2_StemHintRec_, ptr %17, i32 0, i32 4
  store i32 0, ptr %100, align 4
  %101 = load ptr, ptr %9, align 8
  call void @cf2_arrstack_push(ptr noundef %101, ptr noundef %17)
  br label %102

102:                                              ; preds = %84
  %103 = load i32, ptr %13, align 4
  %104 = add i32 %103, 2
  store i32 %104, ptr %13, align 4
  br label %80, !llvm.loop !69

105:                                              ; preds = %80
  %106 = load ptr, ptr %8, align 8
  call void @cf2_stack_clear(ptr noundef %106)
  br label %107

107:                                              ; preds = %105, %74
  %108 = load ptr, ptr %11, align 8
  store i8 1, ptr %108, align 1
  ret void
}