; Function Attrs: nounwind uwtable
define internal fastcc void @cf2_doStems(ptr noundef readonly captures(none) %0, ptr noundef nonnull captures(none) %1, ptr noundef nonnull captures(none) %2, ptr noundef nonnull writeonly captures(none) %3, ptr noundef nonnull captures(none) %4, i32 noundef %5) unnamed_addr #0 {
  %7 = alloca %struct.CF2_StemHintRec_, align 4
  %8 = getelementptr i8, ptr %1, i64 16
  %.val27 = load ptr, ptr %8, align 8
  %9 = getelementptr i8, ptr %1, i64 24
  %.val28 = load ptr, ptr %9, align 8
  %10 = ptrtoint ptr %.val28 to i64
  %11 = ptrtoint ptr %.val27 to i64
  %12 = sub i64 %10, %11
  %13 = lshr exact i64 %12, 3
  %14 = trunc i64 %13 to i32
  %15 = and i32 %14, 1
  %16 = getelementptr inbounds nuw i8, ptr %0, i64 12
  %17 = load i8, ptr %16, align 4
  %18 = icmp eq i8 %17, 0
  %19 = icmp ne i32 %15, 0
  %or.cond = select i1 %18, i1 %19, i1 false
  br i1 %or.cond, label %20, label %39

20:                                               ; preds = %6
  %21 = load i8, ptr %4, align 1
  %.not = icmp eq i8 %21, 0
  br i1 %.not, label %22, label %39

22:                                               ; preds = %20
  %23 = getelementptr inbounds nuw i8, ptr %.val27, i64 4
  %24 = load i32, ptr %23, align 4
  %25 = load i32, ptr %.val27, align 4
  switch i32 %24, label %cf2_stack_getReal.exit [
    i32 2, label %26
    i32 1, label %28
  ]

26:                                               ; preds = %22
  %27 = shl i32 %25, 16
  br label %cf2_stack_getReal.exit

28:                                               ; preds = %22
  %29 = add nsw i32 %25, 8192
  %.lobit.neg.i = ashr i32 %25, 31
  %30 = add nsw i32 %29, %.lobit.neg.i
  %31 = ashr i32 %30, 14
  br label %cf2_stack_getReal.exit

cf2_stack_getReal.exit:                           ; preds = %22, %26, %28
  %.0.i = phi i32 [ %31, %28 ], [ %27, %26 ], [ %25, %22 ]
  %32 = getelementptr inbounds nuw i8, ptr %0, i64 240
  %33 = load ptr, ptr %32, align 8
  %34 = getelementptr i8, ptr %33, i64 1056
  %.val = load ptr, ptr %34, align 8
  %35 = getelementptr i8, ptr %.val, i64 1032
  %.val.val = load i64, ptr %35, align 8
  %36 = trunc i64 %.val.val to i32
  %37 = shl i32 %36, 16
  %38 = add i32 %37, %.0.i
  store i32 %38, ptr %3, align 4
  br label %39

39:                                               ; preds = %cf2_stack_getReal.exit, %20, %6
  %40 = getelementptr inbounds nuw i8, ptr %0, i64 240
  %41 = load ptr, ptr %40, align 8
  %42 = getelementptr inbounds nuw i8, ptr %41, i64 1080
  %43 = load i8, ptr %42, align 8
  %.not26 = icmp eq i8 %43, 0
  br i1 %.not26, label %.preheader, label %95

.preheader:                                       ; preds = %39
  %.not47 = icmp ult i32 %14, 2
  br i1 %.not47, label %._crit_edge, label %.lr.ph

.lr.ph:                                           ; preds = %.preheader
  %44 = getelementptr inbounds nuw i8, ptr %1, i64 8
  %45 = getelementptr inbounds nuw i8, ptr %7, i64 4
  %46 = getelementptr inbounds nuw i8, ptr %7, i64 8
  %47 = getelementptr inbounds nuw i8, ptr %7, i64 12
  %48 = getelementptr inbounds nuw i8, ptr %7, i64 16
  br label %49

49:                                               ; preds = %.lr.ph, %cf2_stack_getReal.exit44
  %.046 = phi i32 [ %5, %.lr.ph ], [ %91, %cf2_stack_getReal.exit44 ]
  %.02545 = phi i32 [ %15, %.lr.ph ], [ %92, %cf2_stack_getReal.exit44 ]
  %.val.i29 = load ptr, ptr %8, align 8
  %.val14.i30 = load ptr, ptr %9, align 8
  %50 = ptrtoint ptr %.val14.i30 to i64
  %51 = ptrtoint ptr %.val.i29 to i64
  %52 = sub i64 %50, %51
  %53 = lshr exact i64 %52, 3
  %54 = trunc i64 %53 to i32
  %.not.i31 = icmp ult i32 %.02545, %54
  br i1 %.not.i31, label %60, label %55

55:                                               ; preds = %49
  %56 = load ptr, ptr %44, align 8
  %.not.i.i32 = icmp eq ptr %56, null
  br i1 %.not.i.i32, label %cf2_stack_getReal.exit36, label %57

57:                                               ; preds = %55
  %58 = load i32, ptr %56, align 4
  %.not3.i.i33 = icmp eq i32 %58, 0
  br i1 %.not3.i.i33, label %59, label %cf2_stack_getReal.exit36

59:                                               ; preds = %57
  store i32 130, ptr %56, align 4
  %.val.i37.pre = load ptr, ptr %8, align 8
  %.val14.i38.pre = load ptr, ptr %9, align 8
  %.pre = ptrtoint ptr %.val14.i38.pre to i64
  %.pre50 = ptrtoint ptr %.val.i37.pre to i64
  %.pre52 = sub i64 %.pre, %.pre50
  %.pre54 = lshr exact i64 %.pre52, 3
  %.pre56 = trunc i64 %.pre54 to i32
  br label %cf2_stack_getReal.exit36

60:                                               ; preds = %49
  %61 = zext i32 %.02545 to i64
  %62 = getelementptr inbounds nuw %struct.CF2_StackNumber_, ptr %.val.i29, i64 %61
  %63 = getelementptr inbounds nuw i8, ptr %62, i64 4
  %64 = load i32, ptr %63, align 4
  %65 = load i32, ptr %62, align 4
  switch i32 %64, label %cf2_stack_getReal.exit36 [
    i32 2, label %66
    i32 1, label %68
  ]

66:                                               ; preds = %60
  %67 = shl i32 %65, 16
  br label %cf2_stack_getReal.exit36

68:                                               ; preds = %60
  %69 = add nsw i32 %65, 8192
  %.lobit.neg.i35 = ashr i32 %65, 31
  %70 = add nsw i32 %69, %.lobit.neg.i35
  %71 = ashr i32 %70, 14
  br label %cf2_stack_getReal.exit36

cf2_stack_getReal.exit36:                         ; preds = %55, %57, %59, %60, %66, %68
  %.pre-phi57 = phi i32 [ %54, %55 ], [ %54, %57 ], [ %.pre56, %59 ], [ %54, %60 ], [ %54, %66 ], [ %54, %68 ]
  %.val.i37 = phi ptr [ %.val.i29, %55 ], [ %.val.i29, %57 ], [ %.val.i37.pre, %59 ], [ %.val.i29, %60 ], [ %.val.i29, %66 ], [ %.val.i29, %68 ]
  %.0.i34 = phi i32 [ 0, %55 ], [ 0, %57 ], [ 0, %59 ], [ %65, %60 ], [ %67, %66 ], [ %71, %68 ]
  %72 = add i32 %.0.i34, %.046
  store i32 %72, ptr %45, align 4
  %73 = add nuw i32 %.02545, 1
  %.not.i39 = icmp ult i32 %73, %.pre-phi57
  br i1 %.not.i39, label %79, label %74

74:                                               ; preds = %cf2_stack_getReal.exit36
  %75 = load ptr, ptr %44, align 8
  %.not.i.i40 = icmp eq ptr %75, null
  br i1 %.not.i.i40, label %cf2_stack_getReal.exit44, label %76

76:                                               ; preds = %74
  %77 = load i32, ptr %75, align 4
  %.not3.i.i41 = icmp eq i32 %77, 0
  br i1 %.not3.i.i41, label %78, label %cf2_stack_getReal.exit44

78:                                               ; preds = %76
  store i32 130, ptr %75, align 4
  br label %cf2_stack_getReal.exit44

79:                                               ; preds = %cf2_stack_getReal.exit36
  %80 = zext i32 %73 to i64
  %81 = getelementptr inbounds nuw %struct.CF2_StackNumber_, ptr %.val.i37, i64 %80
  %82 = getelementptr inbounds nuw i8, ptr %81, i64 4
  %83 = load i32, ptr %82, align 4
  %84 = load i32, ptr %81, align 4
  switch i32 %83, label %cf2_stack_getReal.exit44 [
    i32 2, label %85
    i32 1, label %87
  ]

85:                                               ; preds = %79
  %86 = shl i32 %84, 16
  br label %cf2_stack_getReal.exit44

87:                                               ; preds = %79
  %88 = add nsw i32 %84, 8192
  %.lobit.neg.i43 = ashr i32 %84, 31
  %89 = add nsw i32 %88, %.lobit.neg.i43
  %90 = ashr i32 %89, 14
  br label %cf2_stack_getReal.exit44

cf2_stack_getReal.exit44:                         ; preds = %74, %76, %78, %79, %85, %87
  %.0.i42 = phi i32 [ %90, %87 ], [ %86, %85 ], [ 0, %74 ], [ 0, %76 ], [ 0, %78 ], [ %84, %79 ]
  %91 = add i32 %.0.i42, %72
  store i32 %91, ptr %46, align 4
  store i8 0, ptr %7, align 4
  store i32 0, ptr %47, align 4
  store i32 0, ptr %48, align 4
  call fastcc void @cf2_arrstack_push(ptr noundef nonnull %2, ptr noundef %7)
  %92 = add i32 %.02545, 2
  %93 = icmp ult i32 %92, %14
  br i1 %93, label %49, label %._crit_edge, !llvm.loop !64

._crit_edge:                                      ; preds = %cf2_stack_getReal.exit44, %.preheader
  %94 = load ptr, ptr %8, align 8
  store ptr %94, ptr %9, align 8
  br label %95

95:                                               ; preds = %39, %._crit_edge
  store i8 1, ptr %4, align 1
  ret void
}